target datalayout = "e-m:e-p270:32:32-p271:32:32-p272:64:64-i64:64-i128:128-f80:128-n8:16:32:64-S128"
target triple = "x86_64-pc-linux-gnu"

; Function Attrs: nounwind uwtable
define internal i32 @is_digit(i32 noundef %0) #0 {
  %2 = alloca i32, align 4
  store i32 %0, ptr %2, align 4
  %3 = load i32, ptr %2, align 4
  %4 = icmp sge i32 %3, 48
  br i1 %4, label %5, label %8

5:                                                ; preds = %1
  %6 = load i32, ptr %2, align 4
  %7 = icmp sle i32 %6, 57
  br label %8

8:                                                ; preds = %5, %1
  %9 = phi i1 [ false, %1 ], [ %7, %5 ]
  %10 = zext i1 %9 to i32
  ret i32 %10
}

; Function Attrs: nounwind uwtable
define internal i32 @from_surrogate(i32 noundef %0, i32 noundef %1) #0 {
  %3 = alloca i32, align 4
  %4 = alloca i32, align 4
  store i32 %0, ptr %3, align 4
  store i32 %1, ptr %4, align 4
  %5 = load i32, ptr %3, align 4
  %6 = sub i32 %5, 55296
  %7 = mul i32 1024, %6
  %8 = add i32 65536, %7
  %9 = load i32, ptr %4, align 4
  %10 = sub i32 %9, 56320
  %11 = add i32 %8, %10
  ret i32 %11
}

; Function Attrs: nounwind uwtable
define internal i32 @is_lo_surrogate(i32 noundef %0) #0 {
  %2 = alloca i32, align 4
  store i32 %0, ptr %2, align 4
  %3 = load i32, ptr %2, align 4
  %4 = lshr i32 %3, 10
  %5 = icmp eq i32 %4, 55
  %6 = zext i1 %5 to i32
  ret i32 %6
}

; Function Attrs: nounwind uwtable
define internal i32 @is_hi_surrogate(i32 noundef %0) #0 {
  %2 = alloca i32, align 4
  store i32 %0, ptr %2, align 4
  %3 = load i32, ptr %2, align 4
  %4 = lshr i32 %3, 10
  %5 = icmp eq i32 %4, 54
  %6 = zext i1 %5 to i32
  ret i32 %6
}

; Function Attrs: nounwind uwtable
define internal i32 @from_hex(i32 noundef %0) #0 {
  %2 = alloca i32, align 4
  %3 = alloca i32, align 4
  store i32 %0, ptr %3, align 4
  %4 = load i32, ptr %3, align 4
  %5 = icmp sge i32 %4, 48
  br i1 %5, label %6, label %12

6:                                                ; preds = %1
  %7 = load i32, ptr %3, align 4
  %8 = icmp sle i32 %7, 57
  br i1 %8, label %9, label %12

9:                                                ; preds = %6
  %10 = load i32, ptr %3, align 4
  %11 = sub i32 %10, 48
  store i32 %11, ptr %2, align 4
  br label %33

12:                                               ; preds = %6, %1
  %13 = load i32, ptr %3, align 4
  %14 = icmp sge i32 %13, 65
  br i1 %14, label %15, label %22

15:                                               ; preds = %12
  %16 = load i32, ptr %3, align 4
  %17 = icmp sle i32 %16, 70
  br i1 %17, label %18, label %22

18:                                               ; preds = %15
  %19 = load i32, ptr %3, align 4
  %20 = sub i32 %19, 65
  %21 = add i32 %20, 10
  store i32 %21, ptr %2, align 4
  br label %33

22:                                               ; preds = %15, %12
  %23 = load i32, ptr %3, align 4
  %24 = icmp sge i32 %23, 97
  br i1 %24, label %25, label %32

25:                                               ; preds = %22
  %26 = load i32, ptr %3, align 4
  %27 = icmp sle i32 %26, 102
  br i1 %27, label %28, label %32

28:                                               ; preds = %25
  %29 = load i32, ptr %3, align 4
  %30 = sub i32 %29, 97
  %31 = add i32 %30, 10
  store i32 %31, ptr %2, align 4
  br label %33

32:                                               ; preds = %25, %22
  store i32 -1, ptr %2, align 4
  br label %33

33:                                               ; preds = %32, %28, %18, %9
  %34 = load i32, ptr %2, align 4
  ret i32 %34
}

; Function Attrs: nounwind uwtable
define dso_local i32 @lre_parse_escape(ptr noundef %0, i32 noundef %1) #0 {
  %3 = alloca i32, align 4
  %4 = alloca ptr, align 8
  %5 = alloca i32, align 4
  %6 = alloca ptr, align 8
  %7 = alloca i32, align 4
  %8 = alloca i32, align 4
  %9 = alloca i32, align 4
  %10 = alloca i32, align 4
  %11 = alloca i32, align 4
  %12 = alloca i32, align 4
  store ptr %0, ptr %4, align 8
  store i32 %1, ptr %5, align 4
  %13 = load ptr, ptr %4, align 8
  %14 = load ptr, ptr %13, align 8
  store ptr %14, ptr %6, align 8
  %15 = load ptr, ptr %6, align 8
  %16 = getelementptr i8, ptr %15, i32 1
  store ptr %16, ptr %6, align 8
  %17 = load i8, ptr %15, align 1
  %18 = zext i8 %17 to i32
  store i32 %18, ptr %7, align 4
  %19 = load i32, ptr %7, align 4
  switch i32 %19, label %200 [
    i32 98, label %20
    i32 102, label %21
    i32 110, label %22
    i32 114, label %23
    i32 116, label %24
    i32 118, label %25
    i32 120, label %26
    i32 117, label %26
    i32 48, label %150
    i32 49, label %150
    i32 50, label %150
    i32 51, label %150
    i32 52, label %150
    i32 53, label %150
    i32 54, label %150
    i32 55, label %150
  ]

20:                                               ; preds = %2
  store i32 8, ptr %7, align 4
  br label %201

21:                                               ; preds = %2
  store i32 12, ptr %7, align 4
  br label %201

22:                                               ; preds = %2
  store i32 10, ptr %7, align 4
  br label %201

23:                                               ; preds = %2
  store i32 13, ptr %7, align 4
  br label %201

24:                                               ; preds = %2
  store i32 9, ptr %7, align 4
  br label %201

25:                                               ; preds = %2
  store i32 11, ptr %7, align 4
  br label %201

26:                                               ; preds = %2, %2
  %27 = load ptr, ptr %6, align 8
  %28 = load i8, ptr %27, align 1
  %29 = zext i8 %28 to i32
  %30 = icmp eq i32 %29, 123
  br i1 %30, label %31, label %64

31:                                               ; preds = %26
  %32 = load i32, ptr %5, align 4
  %33 = icmp ne i32 %32, 0
  br i1 %33, label %34, label %64

34:                                               ; preds = %31
  %35 = load ptr, ptr %6, align 8
  %36 = getelementptr i8, ptr %35, i32 1
  store ptr %36, ptr %6, align 8
  store i32 0, ptr %7, align 4
  br label %37

37:                                               ; preds = %60, %34
  %38 = load ptr, ptr %6, align 8
  %39 = getelementptr i8, ptr %38, i32 1
  store ptr %39, ptr %6, align 8
  %40 = load i8, ptr %38, align 1
  %41 = zext i8 %40 to i32
  %42 = call i32 @from_hex(i32 noundef %41)
  store i32 %42, ptr %8, align 4
  %43 = load i32, ptr %8, align 4
  %44 = icmp slt i32 %43, 0
  br i1 %44, label %45, label %46

45:                                               ; preds = %37
  store i32 -1, ptr %3, align 4
  br label %205

46:                                               ; preds = %37
  %47 = load i32, ptr %7, align 4
  %48 = shl i32 %47, 4
  %49 = load i32, ptr %8, align 4
  %50 = or i32 %48, %49
  store i32 %50, ptr %7, align 4
  %51 = load i32, ptr %7, align 4
  %52 = icmp ugt i32 %51, 1114111
  br i1 %52, label %53, label %54

53:                                               ; preds = %46
  store i32 -1, ptr %3, align 4
  br label %205

54:                                               ; preds = %46
  %55 = load ptr, ptr %6, align 8
  %56 = load i8, ptr %55, align 1
  %57 = zext i8 %56 to i32
  %58 = icmp eq i32 %57, 125
  br i1 %58, label %59, label %60

59:                                               ; preds = %54
  br label %61

60:                                               ; preds = %54
  br label %37

61:                                               ; preds = %59
  %62 = load ptr, ptr %6, align 8
  %63 = getelementptr i8, ptr %62, i32 1
  store ptr %63, ptr %6, align 8
  br label %149

64:                                               ; preds = %31, %26
  %65 = load i32, ptr %7, align 4
  %66 = icmp eq i32 %65, 120
  br i1 %66, label %67, label %68

67:                                               ; preds = %64
  store i32 2, ptr %9, align 4
  br label %69

68:                                               ; preds = %64
  store i32 4, ptr %9, align 4
  br label %69

69:                                               ; preds = %68, %67
  store i32 0, ptr %7, align 4
  store i32 0, ptr %10, align 4
  br label %70

70:                                               ; preds = %88, %69
  %71 = load i32, ptr %10, align 4
  %72 = load i32, ptr %9, align 4
  %73 = icmp slt i32 %71, %72
  br i1 %73, label %74, label %91

74:                                               ; preds = %70
  %75 = load ptr, ptr %6, align 8
  %76 = getelementptr i8, ptr %75, i32 1
  store ptr %76, ptr %6, align 8
  %77 = load i8, ptr %75, align 1
  %78 = zext i8 %77 to i32
  %79 = call i32 @from_hex(i32 noundef %78)
  store i32 %79, ptr %8, align 4
  %80 = load i32, ptr %8, align 4
  %81 = icmp slt i32 %80, 0
  br i1 %81, label %82, label %83

82:                                               ; preds = %74
  store i32 -1, ptr %3, align 4
  br label %205

83:                                               ; preds = %74
  %84 = load i32, ptr %7, align 4
  %85 = shl i32 %84, 4
  %86 = load i32, ptr %8, align 4
  %87 = or i32 %85, %86
  store i32 %87, ptr %7, align 4
  br label %88

88:                                               ; preds = %83
  %89 = load i32, ptr %10, align 4
  %90 = add i32 %89, 1
  store i32 %90, ptr %10, align 4
  br label %70, !llvm.loop !9

91:                                               ; preds = %70
  %92 = load i32, ptr %7, align 4
  %93 = call i32 @is_hi_surrogate(i32 noundef %92)
  %94 = icmp ne i32 %93, 0
  br i1 %94, label %95, label %148

95:                                               ; preds = %91
  %96 = load i32, ptr %5, align 4
  %97 = icmp eq i32 %96, 2
  br i1 %97, label %98, label %148

98:                                               ; preds = %95
  %99 = load ptr, ptr %6, align 8
  %100 = getelementptr i8, ptr %99, i64 0
  %101 = load i8, ptr %100, align 1
  %102 = zext i8 %101 to i32
  %103 = icmp eq i32 %102, 92
  br i1 %103, label %104, label %148

104:                                              ; preds = %98
  %105 = load ptr, ptr %6, align 8
  %106 = getelementptr i8, ptr %105, i64 1
  %107 = load i8, ptr %106, align 1
  %108 = zext i8 %107 to i32
  %109 = icmp eq i32 %108, 117
  br i1 %109, label %110, label %148

110:                                              ; preds = %104
  store i32 0, ptr %11, align 4
  store i32 0, ptr %10, align 4
  br label %111

111:                                              ; preds = %131, %110
  %112 = load i32, ptr %10, align 4
  %113 = icmp slt i32 %112, 4
  br i1 %113, label %114, label %134

114:                                              ; preds = %111
  %115 = load ptr, ptr %6, align 8
  %116 = load i32, ptr %10, align 4
  %117 = add i32 2, %116
  %118 = sext i32 %117 to i64
  %119 = getelementptr i8, ptr %115, i64 %118
  %120 = load i8, ptr %119, align 1
  %121 = zext i8 %120 to i32
  %122 = call i32 @from_hex(i32 noundef %121)
  store i32 %122, ptr %8, align 4
  %123 = load i32, ptr %8, align 4
  %124 = icmp slt i32 %123, 0
  br i1 %124, label %125, label %126

125:                                              ; preds = %114
  br label %134

126:                                              ; preds = %114
  %127 = load i32, ptr %11, align 4
  %128 = shl i32 %127, 4
  %129 = load i32, ptr %8, align 4
  %130 = or i32 %128, %129
  store i32 %130, ptr %11, align 4
  br label %131

131:                                              ; preds = %126
  %132 = load i32, ptr %10, align 4
  %133 = add i32 %132, 1
  store i32 %133, ptr %10, align 4
  br label %111, !llvm.loop !10

134:                                              ; preds = %125, %111
  %135 = load i32, ptr %10, align 4
  %136 = icmp eq i32 %135, 4
  br i1 %136, label %137, label %147

137:                                              ; preds = %134
  %138 = load i32, ptr %11, align 4
  %139 = call i32 @is_lo_surrogate(i32 noundef %138)
  %140 = icmp ne i32 %139, 0
  br i1 %140, label %141, label %147

141:                                              ; preds = %137
  %142 = load ptr, ptr %6, align 8
  %143 = getelementptr i8, ptr %142, i64 6
  store ptr %143, ptr %6, align 8
  %144 = load i32, ptr %7, align 4
  %145 = load i32, ptr %11, align 4
  %146 = call i32 @from_surrogate(i32 noundef %144, i32 noundef %145)
  store i32 %146, ptr %7, align 4
  br label %147

147:                                              ; preds = %141, %137, %134
  br label %148

148:                                              ; preds = %147, %104, %98, %95, %91
  br label %149

149:                                              ; preds = %148, %61
  br label %201

150:                                              ; preds = %2, %2, %2, %2, %2, %2, %2, %2
  %151 = load i32, ptr %7, align 4
  %152 = sub i32 %151, 48
  store i32 %152, ptr %7, align 4
  %153 = load i32, ptr %5, align 4
  %154 = icmp eq i32 %153, 2
  br i1 %154, label %155, label %166

155:                                              ; preds = %150
  %156 = load i32, ptr %7, align 4
  %157 = icmp ne i32 %156, 0
  br i1 %157, label %164, label %158

158:                                              ; preds = %155
  %159 = load ptr, ptr %6, align 8
  %160 = load i8, ptr %159, align 1
  %161 = zext i8 %160 to i32
  %162 = call i32 @is_digit(i32 noundef %161)
  %163 = icmp ne i32 %162, 0
  br i1 %163, label %164, label %165

164:                                              ; preds = %158, %155
  store i32 -1, ptr %3, align 4
  br label %205

165:                                              ; preds = %158
  br label %199

166:                                              ; preds = %150
  %167 = load ptr, ptr %6, align 8
  %168 = load i8, ptr %167, align 1
  %169 = zext i8 %168 to i32
  %170 = sub i32 %169, 48
  store i32 %170, ptr %12, align 4
  %171 = load i32, ptr %12, align 4
  %172 = icmp ugt i32 %171, 7
  br i1 %172, label %173, label %174

173:                                              ; preds = %166
  br label %201

174:                                              ; preds = %166
  %175 = load i32, ptr %7, align 4
  %176 = shl i32 %175, 3
  %177 = load i32, ptr %12, align 4
  %178 = or i32 %176, %177
  store i32 %178, ptr %7, align 4
  %179 = load ptr, ptr %6, align 8
  %180 = getelementptr i8, ptr %179, i32 1
  store ptr %180, ptr %6, align 8
  %181 = load i32, ptr %7, align 4
  %182 = icmp uge i32 %181, 32
  br i1 %182, label %183, label %184

183:                                              ; preds = %174
  br label %201

184:                                              ; preds = %174
  %185 = load ptr, ptr %6, align 8
  %186 = load i8, ptr %185, align 1
  %187 = zext i8 %186 to i32
  %188 = sub i32 %187, 48
  store i32 %188, ptr %12, align 4
  %189 = load i32, ptr %12, align 4
  %190 = icmp ugt i32 %189, 7
  br i1 %190, label %191, label %192

191:                                              ; preds = %184
  br label %201

192:                                              ; preds = %184
  %193 = load i32, ptr %7, align 4
  %194 = shl i32 %193, 3
  %195 = load i32, ptr %12, align 4
  %196 = or i32 %194, %195
  store i32 %196, ptr %7, align 4
  %197 = load ptr, ptr %6, align 8
  %198 = getelementptr i8, ptr %197, i32 1
  store ptr %198, ptr %6, align 8
  br label %199

199:                                              ; preds = %192, %165
  br label %201

200:                                              ; preds = %2
  store i32 -2, ptr %3, align 4
  br label %205

201:                                              ; preds = %199, %191, %183, %173, %149, %25, %24, %23, %22, %21, %20
  %202 = load ptr, ptr %6, align 8
  %203 = load ptr, ptr %4, align 8
  store ptr %202, ptr %203, align 8
  %204 = load i32, ptr %7, align 4
  store i32 %204, ptr %3, align 4
  br label %205

205:                                              ; preds = %201, %200, %164, %82, %53, %45
  %206 = load i32, ptr %3, align 4
  ret i32 %206
}