; Function Attrs: nofree norecurse nosync nounwind memory(read, argmem: readwrite, inaccessiblemem: none) uwtable
define dso_local i32 @lre_parse_escape(ptr nocapture noundef %0, i32 noundef %1) local_unnamed_addr #1 {
  %3 = load ptr, ptr %0, align 8
  %4 = getelementptr i8, ptr %3, i64 1
  %5 = load i8, ptr %3, align 1
  switch i8 %5, label %from_hex.exit.thread92 [
    i8 98, label %.thread
    i8 102, label %6
    i8 110, label %7
    i8 114, label %8
    i8 116, label %9
    i8 118, label %10
    i8 120, label %11
    i8 117, label %11
    i8 48, label %85
    i8 49, label %85
    i8 50, label %85
    i8 51, label %85
    i8 52, label %85
    i8 53, label %85
    i8 54, label %85
    i8 55, label %85
  ]

6:                                                ; preds = %2
  br label %.thread

7:                                                ; preds = %2
  br label %.thread

8:                                                ; preds = %2
  br label %.thread

9:                                                ; preds = %2
  br label %.thread

10:                                               ; preds = %2
  br label %.thread

11:                                               ; preds = %2, %2
  %12 = load i8, ptr %4, align 1
  %13 = icmp eq i8 %12, 123
  %14 = icmp ne i32 %1, 0
  %or.cond = and i1 %14, %13
  br i1 %or.cond, label %15, label %38

15:                                               ; preds = %11
  %16 = getelementptr i8, ptr %3, i64 2
  %.pre = load i8, ptr %16, align 1
  br label %17

17:                                               ; preds = %33, %15
  %18 = phi i8 [ %.pre, %15 ], [ %34, %33 ]
  %.062 = phi ptr [ %16, %15 ], [ %19, %33 ]
  %.060 = phi i32 [ 0, %15 ], [ %31, %33 ]
  %19 = getelementptr i8, ptr %.062, i64 1
  %20 = zext i8 %18 to i32
  %21 = add nsw i32 %20, -48
  %or.cond.i = icmp ult i32 %21, 10
  br i1 %or.cond.i, label %from_hex.exit.thread, label %22

22:                                               ; preds = %17
  %23 = add nsw i32 %20, -65
  %or.cond3.i = icmp ult i32 %23, 6
  br i1 %or.cond3.i, label %24, label %26

24:                                               ; preds = %22
  %25 = add nsw i32 %20, -55
  br label %from_hex.exit.thread

26:                                               ; preds = %22
  %27 = add nsw i32 %20, -103
  %or.cond5.i = icmp ult i32 %27, -6
  %28 = add nsw i32 %20, -87
  %29 = icmp ult i8 %18, 87
  %or.cond104 = or i1 %29, %or.cond5.i
  br i1 %or.cond104, label %from_hex.exit.thread92, label %from_hex.exit.thread

from_hex.exit.thread:                             ; preds = %26, %17, %24
  %.0.i91 = phi i32 [ %21, %17 ], [ %25, %24 ], [ %28, %26 ]
  %30 = shl i32 %.060, 4
  %31 = or i32 %.0.i91, %30
  %32 = icmp ugt i32 %31, 1114111
  br i1 %32, label %from_hex.exit.thread92, label %33

33:                                               ; preds = %from_hex.exit.thread
  %34 = load i8, ptr %19, align 1
  %35 = icmp eq i8 %34, 125
  br i1 %35, label %36, label %17

36:                                               ; preds = %33
  %37 = getelementptr i8, ptr %.062, i64 2
  br label %.thread

38:                                               ; preds = %11
  %39 = icmp eq i8 %5, 120
  %. = select i1 %39, i32 2, i32 4
  br label %40

40:                                               ; preds = %38, %from_hex.exit82.thread
  %.058117 = phi i32 [ 0, %38 ], [ %55, %from_hex.exit82.thread ]
  %.161116 = phi i32 [ 0, %38 ], [ %54, %from_hex.exit82.thread ]
  %.163115 = phi ptr [ %4, %38 ], [ %52, %from_hex.exit82.thread ]
  %41 = load i8, ptr %.163115, align 1
  %42 = zext i8 %41 to i32
  %43 = add nsw i32 %42, -48
  %or.cond.i77 = icmp ult i32 %43, 10
  br i1 %or.cond.i77, label %from_hex.exit82.thread, label %44

44:                                               ; preds = %40
  %45 = add nsw i32 %42, -65
  %or.cond3.i78 = icmp ult i32 %45, 6
  br i1 %or.cond3.i78, label %46, label %48

46:                                               ; preds = %44
  %47 = add nsw i32 %42, -55
  br label %from_hex.exit82.thread

48:                                               ; preds = %44
  %49 = add nsw i32 %42, -103
  %or.cond5.i79 = icmp ult i32 %49, -6
  %50 = add nsw i32 %42, -87
  %51 = icmp ult i8 %41, 87
  %or.cond105 = or i1 %51, %or.cond5.i79
  br i1 %or.cond105, label %from_hex.exit.thread92, label %from_hex.exit82.thread

from_hex.exit82.thread:                           ; preds = %48, %40, %46
  %.0.i8196 = phi i32 [ %43, %40 ], [ %47, %46 ], [ %50, %48 ]
  %52 = getelementptr i8, ptr %.163115, i64 1
  %53 = shl i32 %.161116, 4
  %54 = or i32 %.0.i8196, %53
  %55 = add nuw nsw i32 %.058117, 1
  %exitcond.not = icmp eq i32 %55, %.
  br i1 %exitcond.not, label %56, label %40, !llvm.loop !9

56:                                               ; preds = %from_hex.exit82.thread
  %.mask.i = and i32 %54, -1024
  %57 = icmp eq i32 %.mask.i, 55296
  %58 = icmp eq i32 %1, 2
  %or.cond3 = and i1 %58, %57
  br i1 %or.cond3, label %59, label %.thread

59:                                               ; preds = %56
  %60 = load i8, ptr %52, align 1
  %61 = icmp eq i8 %60, 92
  br i1 %61, label %62, label %.thread

62:                                               ; preds = %59
  %63 = getelementptr i8, ptr %.163115, i64 2
  %64 = load i8, ptr %63, align 1
  %65 = icmp eq i8 %64, 117
  br i1 %65, label %.preheader.preheader, label %.thread

.preheader.preheader:                             ; preds = %62
  %invariant.gep = getelementptr i8, ptr %.163115, i64 3
  br label %.preheader

.preheader:                                       ; preds = %.preheader.preheader, %from_hex.exit88.thread
  %indvars.iv = phi i64 [ 0, %.preheader.preheader ], [ %indvars.iv.next, %from_hex.exit88.thread ]
  %.0119 = phi i32 [ 0, %.preheader.preheader ], [ %78, %from_hex.exit88.thread ]
  %gep = getelementptr i8, ptr %invariant.gep, i64 %indvars.iv
  %66 = load i8, ptr %gep, align 1
  %67 = zext i8 %66 to i32
  %68 = add nsw i32 %67, -48
  %or.cond.i83 = icmp ult i32 %68, 10
  br i1 %or.cond.i83, label %from_hex.exit88.thread, label %69

69:                                               ; preds = %.preheader
  %70 = add nsw i32 %67, -65
  %or.cond3.i84 = icmp ult i32 %70, 6
  br i1 %or.cond3.i84, label %71, label %73

71:                                               ; preds = %69
  %72 = add nsw i32 %67, -55
  br label %from_hex.exit88.thread

73:                                               ; preds = %69
  %74 = add nsw i32 %67, -103
  %or.cond5.i85 = icmp ult i32 %74, -6
  %75 = add nsw i32 %67, -87
  %76 = icmp ult i8 %66, 87
  %or.cond106 = or i1 %76, %or.cond5.i85
  br i1 %or.cond106, label %.thread, label %from_hex.exit88.thread

from_hex.exit88.thread:                           ; preds = %73, %.preheader, %71
  %.0.i87101 = phi i32 [ %68, %.preheader ], [ %72, %71 ], [ %75, %73 ]
  %77 = shl i32 %.0119, 4
  %78 = or i32 %.0.i87101, %77
  %indvars.iv.next = add nuw nsw i64 %indvars.iv, 1
  %exitcond128.not = icmp eq i64 %indvars.iv.next, 4
  br i1 %exitcond128.not, label %79, label %.preheader, !llvm.loop !10

79:                                               ; preds = %from_hex.exit88.thread
  %.mask.i89 = and i32 %78, -1024
  %.not107 = icmp eq i32 %.mask.i89, 56320
  br i1 %.not107, label %80, label %.thread

80:                                               ; preds = %79
  %81 = getelementptr i8, ptr %.163115, i64 7
  %82 = shl nuw nsw i32 %54, 10
  %83 = add nsw i32 %82, -56613888
  %84 = add nuw nsw i32 %83, %78
  br label %.thread

85:                                               ; preds = %2, %2, %2, %2, %2, %2, %2, %2
  %86 = zext nneg i8 %5 to i32
  %87 = add nsw i32 %86, -48
  %88 = icmp eq i32 %1, 2
  br i1 %88, label %89, label %95

89:                                               ; preds = %85
  %.not = icmp eq i32 %87, 0
  br i1 %.not, label %90, label %from_hex.exit.thread92

90:                                               ; preds = %89
  %91 = load i8, ptr %4, align 1
  %92 = zext i8 %91 to i32
  %93 = add nsw i32 %92, -58
  %94 = icmp ult i32 %93, -10
  br i1 %94, label %.thread, label %from_hex.exit.thread92

95:                                               ; preds = %85
  %96 = load i8, ptr %4, align 1
  %97 = zext i8 %96 to i32
  %98 = add nsw i32 %97, -48
  %99 = icmp ugt i32 %98, 7
  br i1 %99, label %.thread, label %100

100:                                              ; preds = %95
  %101 = shl nuw nsw i32 %87, 3
  %102 = or disjoint i32 %98, %101
  %103 = getelementptr i8, ptr %3, i64 2
  %104 = icmp ugt i32 %102, 31
  br i1 %104, label %.thread, label %105

105:                                              ; preds = %100
  %106 = load i8, ptr %103, align 1
  %107 = zext i8 %106 to i32
  %108 = add nsw i32 %107, -48
  %109 = icmp ugt i32 %108, 7
  br i1 %109, label %.thread, label %110

110:                                              ; preds = %105
  %111 = shl nuw nsw i32 %102, 3
  %112 = or disjoint i32 %108, %111
  %113 = getelementptr i8, ptr %3, i64 3
  br label %.thread

.thread:                                          ; preds = %73, %2, %110, %90, %105, %100, %95, %36, %79, %80, %62, %59, %56, %10, %9, %8, %7, %6
  %.264 = phi ptr [ %4, %90 ], [ %4, %95 ], [ %103, %100 ], [ %103, %105 ], [ %113, %110 ], [ %37, %36 ], [ %81, %80 ], [ %52, %79 ], [ %52, %62 ], [ %52, %59 ], [ %52, %56 ], [ %4, %10 ], [ %4, %9 ], [ %4, %8 ], [ %4, %7 ], [ %4, %6 ], [ %4, %2 ], [ %52, %73 ]
  %.2 = phi i32 [ 0, %90 ], [ %87, %95 ], [ %102, %100 ], [ %102, %105 ], [ %112, %110 ], [ %31, %36 ], [ %84, %80 ], [ %54, %79 ], [ %54, %62 ], [ %54, %59 ], [ %54, %56 ], [ 11, %10 ], [ 9, %9 ], [ 13, %8 ], [ 10, %7 ], [ 12, %6 ], [ 8, %2 ], [ %54, %73 ]
  store ptr %.264, ptr %0, align 8
  br label %from_hex.exit.thread92

from_hex.exit.thread92:                           ; preds = %48, %26, %from_hex.exit.thread, %2, %89, %90, %.thread
  %.065 = phi i32 [ %.2, %.thread ], [ -1, %90 ], [ -1, %89 ], [ -2, %2 ], [ -1, %from_hex.exit.thread ], [ -1, %26 ], [ -1, %48 ]
  ret i32 %.065
}